
adc.elf:     file format elf32-avr

Sections:
Idx Name          Size      VMA       LMA       File off  Algn
  0 .data         00000000  00800100  00800100  0000019a  2**0
                  CONTENTS, ALLOC, LOAD, DATA
  1 .text         00000146  00000000  00000000  00000054  2**1
                  CONTENTS, ALLOC, LOAD, READONLY, CODE
  2 .comment      00000030  00000000  00000000  0000019a  2**0
                  CONTENTS, READONLY
  3 .note.gnu.avr.deviceinfo 00000040  00000000  00000000  000001cc  2**2
                  CONTENTS, READONLY
  4 .debug_aranges 00000038  00000000  00000000  0000020c  2**0
                  CONTENTS, READONLY, DEBUGGING
  5 .debug_info   000008da  00000000  00000000  00000244  2**0
                  CONTENTS, READONLY, DEBUGGING
  6 .debug_abbrev 0000080c  00000000  00000000  00000b1e  2**0
                  CONTENTS, READONLY, DEBUGGING
  7 .debug_line   00000321  00000000  00000000  0000132a  2**0
                  CONTENTS, READONLY, DEBUGGING
  8 .debug_frame  00000054  00000000  00000000  0000164c  2**2
                  CONTENTS, READONLY, DEBUGGING
  9 .debug_str    000003e4  00000000  00000000  000016a0  2**0
                  CONTENTS, READONLY, DEBUGGING
 10 .debug_loc    0000014e  00000000  00000000  00001a84  2**0
                  CONTENTS, READONLY, DEBUGGING
 11 .debug_ranges 00000028  00000000  00000000  00001bd2  2**0
                  CONTENTS, READONLY, DEBUGGING

Disassembly of section .text:

00000000 <__vectors>:
   0:	45 c0       	rjmp	.+138    	; 0x8c <__ctors_end>
   2:	00 00       	nop
   4:	4b c0       	rjmp	.+150    	; 0x9c <__bad_interrupt>
   6:	00 00       	nop
   8:	49 c0       	rjmp	.+146    	; 0x9c <__bad_interrupt>
   a:	00 00       	nop
   c:	47 c0       	rjmp	.+142    	; 0x9c <__bad_interrupt>
   e:	00 00       	nop
  10:	45 c0       	rjmp	.+138    	; 0x9c <__bad_interrupt>
  12:	00 00       	nop
  14:	43 c0       	rjmp	.+134    	; 0x9c <__bad_interrupt>
  16:	00 00       	nop
  18:	41 c0       	rjmp	.+130    	; 0x9c <__bad_interrupt>
  1a:	00 00       	nop
  1c:	3f c0       	rjmp	.+126    	; 0x9c <__bad_interrupt>
  1e:	00 00       	nop
  20:	3d c0       	rjmp	.+122    	; 0x9c <__bad_interrupt>
  22:	00 00       	nop
  24:	3b c0       	rjmp	.+118    	; 0x9c <__bad_interrupt>
  26:	00 00       	nop
  28:	39 c0       	rjmp	.+114    	; 0x9c <__bad_interrupt>
  2a:	00 00       	nop
  2c:	37 c0       	rjmp	.+110    	; 0x9c <__bad_interrupt>
  2e:	00 00       	nop
  30:	35 c0       	rjmp	.+106    	; 0x9c <__bad_interrupt>
  32:	00 00       	nop
  34:	33 c0       	rjmp	.+102    	; 0x9c <__bad_interrupt>
  36:	00 00       	nop
  38:	31 c0       	rjmp	.+98     	; 0x9c <__bad_interrupt>
  3a:	00 00       	nop
  3c:	2f c0       	rjmp	.+94     	; 0x9c <__bad_interrupt>
  3e:	00 00       	nop
  40:	2d c0       	rjmp	.+90     	; 0x9c <__bad_interrupt>
  42:	00 00       	nop
  44:	2b c0       	rjmp	.+86     	; 0x9c <__bad_interrupt>
  46:	00 00       	nop
  48:	29 c0       	rjmp	.+82     	; 0x9c <__bad_interrupt>
  4a:	00 00       	nop
  4c:	27 c0       	rjmp	.+78     	; 0x9c <__bad_interrupt>
  4e:	00 00       	nop
  50:	25 c0       	rjmp	.+74     	; 0x9c <__bad_interrupt>
  52:	00 00       	nop
  54:	23 c0       	rjmp	.+70     	; 0x9c <__bad_interrupt>
  56:	00 00       	nop
  58:	21 c0       	rjmp	.+66     	; 0x9c <__bad_interrupt>
  5a:	00 00       	nop
  5c:	1f c0       	rjmp	.+62     	; 0x9c <__bad_interrupt>
  5e:	00 00       	nop
  60:	1d c0       	rjmp	.+58     	; 0x9c <__bad_interrupt>
  62:	00 00       	nop
  64:	1b c0       	rjmp	.+54     	; 0x9c <__bad_interrupt>
  66:	00 00       	nop
  68:	19 c0       	rjmp	.+50     	; 0x9c <__bad_interrupt>
  6a:	00 00       	nop
  6c:	17 c0       	rjmp	.+46     	; 0x9c <__bad_interrupt>
  6e:	00 00       	nop
  70:	15 c0       	rjmp	.+42     	; 0x9c <__bad_interrupt>
  72:	00 00       	nop
  74:	13 c0       	rjmp	.+38     	; 0x9c <__bad_interrupt>
  76:	00 00       	nop
  78:	11 c0       	rjmp	.+34     	; 0x9c <__bad_interrupt>
  7a:	00 00       	nop
  7c:	0f c0       	rjmp	.+30     	; 0x9c <__bad_interrupt>
  7e:	00 00       	nop
  80:	0d c0       	rjmp	.+26     	; 0x9c <__bad_interrupt>
  82:	00 00       	nop
  84:	0b c0       	rjmp	.+22     	; 0x9c <__bad_interrupt>
  86:	00 00       	nop
  88:	09 c0       	rjmp	.+18     	; 0x9c <__bad_interrupt>
	...

0000008c <__ctors_end>:
  8c:	11 24       	eor	r1, r1
  8e:	1f be       	out	0x3f, r1	; 63
  90:	cf ef       	ldi	r28, 0xFF	; 255
  92:	d0 e1       	ldi	r29, 0x10	; 16
  94:	de bf       	out	0x3e, r29	; 62
  96:	cd bf       	out	0x3d, r28	; 61
  98:	4c d0       	rcall	.+152    	; 0x132 <main>
  9a:	53 c0       	rjmp	.+166    	; 0x142 <_exit>

0000009c <__bad_interrupt>:
  9c:	b1 cf       	rjmp	.-158    	; 0x0 <__vectors>

0000009e <init_adc>:
	}
}

int init_adc(void)
{
	ADMUX = 0x40;
  9e:	80 e4       	ldi	r24, 0x40	; 64
  a0:	87 b9       	out	0x07, r24	; 7
	ADCSRA = 0x87;    // adc en
  a2:	87 e8       	ldi	r24, 0x87	; 135
  a4:	86 b9       	out	0x06, r24	; 6
}
  a6:	08 95       	ret

000000a8 <read_adc>:
unsigned short read_adc()
{
	unsigned char adc_low, adc_high;
	unsigned short value;

	ADCSRA |= 0x40;    // ADC start
  a8:	86 b1       	in	r24, 0x06	; 6
  aa:	80 64       	ori	r24, 0x40	; 64
  ac:	86 b9       	out	0x06, r24	; 6
	// ADC Complete
	while((ADCSRA & 0x10) != 0x10);
  ae:	34 9b       	sbis	0x06, 4	; 6
  b0:	fe cf       	rjmp	.-4      	; 0xae <read_adc+0x6>
	adc_low = ADCL;
  b2:	24 b1       	in	r18, 0x04	; 4
	adc_high = ADCH;
  b4:	85 b1       	in	r24, 0x05	; 5
	value = (adc_high << 8) | adc_low;
  b6:	90 e0       	ldi	r25, 0x00	; 0
  b8:	98 2f       	mov	r25, r24
  ba:	88 27       	eor	r24, r24
	
	return value;
}
  bc:	82 2b       	or	r24, r18
  be:	08 95       	ret

000000c0 <show_adc_led>:

void show_adc_led(unsigned short value)
{
	if(value<=CDS_10) PORTA = 0xFF;
  c0:	83 3c       	cpi	r24, 0xC3	; 195
  c2:	21 e0       	ldi	r18, 0x01	; 1
  c4:	92 07       	cpc	r25, r18
  c6:	18 f4       	brcc	.+6      	; 0xce <show_adc_led+0xe>
  c8:	8f ef       	ldi	r24, 0xFF	; 255
  ca:	8b bb       	out	0x1b, r24	; 27
  cc:	08 95       	ret
	else if(value<=CDS_20) PORTA = 0x7F;
  ce:	86 3e       	cpi	r24, 0xE6	; 230
  d0:	21 e0       	ldi	r18, 0x01	; 1
  d2:	92 07       	cpc	r25, r18
  d4:	18 f4       	brcc	.+6      	; 0xdc <show_adc_led+0x1c>
  d6:	8f e7       	ldi	r24, 0x7F	; 127
  d8:	8b bb       	out	0x1b, r24	; 27
  da:	08 95       	ret
	else if(value<=CDS_30) PORTA = 0x3F;
  dc:	89 30       	cpi	r24, 0x09	; 9
  de:	22 e0       	ldi	r18, 0x02	; 2
  e0:	92 07       	cpc	r25, r18
  e2:	18 f4       	brcc	.+6      	; 0xea <show_adc_led+0x2a>
  e4:	8f e3       	ldi	r24, 0x3F	; 63
  e6:	8b bb       	out	0x1b, r24	; 27
  e8:	08 95       	ret
	else if(value<=CDS_40) PORTA = 0x1F;
  ea:	8c 32       	cpi	r24, 0x2C	; 44
  ec:	22 e0       	ldi	r18, 0x02	; 2
  ee:	92 07       	cpc	r25, r18
  f0:	18 f4       	brcc	.+6      	; 0xf8 <show_adc_led+0x38>
  f2:	8f e1       	ldi	r24, 0x1F	; 31
  f4:	8b bb       	out	0x1b, r24	; 27
  f6:	08 95       	ret
	else if(value<=CDS_50) PORTA = 0x0F;
  f8:	8f 34       	cpi	r24, 0x4F	; 79
  fa:	22 e0       	ldi	r18, 0x02	; 2
  fc:	92 07       	cpc	r25, r18
  fe:	18 f4       	brcc	.+6      	; 0x106 <show_adc_led+0x46>
 100:	8f e0       	ldi	r24, 0x0F	; 15
 102:	8b bb       	out	0x1b, r24	; 27
 104:	08 95       	ret
	else if(value<=CDS_60) PORTA = 0x07;
 106:	82 37       	cpi	r24, 0x72	; 114
 108:	22 e0       	ldi	r18, 0x02	; 2
 10a:	92 07       	cpc	r25, r18
 10c:	18 f4       	brcc	.+6      	; 0x114 <show_adc_led+0x54>
 10e:	87 e0       	ldi	r24, 0x07	; 7
 110:	8b bb       	out	0x1b, r24	; 27
 112:	08 95       	ret
	else if(value<=CDS_70) PORTA = 0x03;
 114:	8b 38       	cpi	r24, 0x8B	; 139
 116:	22 e0       	ldi	r18, 0x02	; 2
 118:	92 07       	cpc	r25, r18
 11a:	18 f4       	brcc	.+6      	; 0x122 <show_adc_led+0x62>
 11c:	83 e0       	ldi	r24, 0x03	; 3
 11e:	8b bb       	out	0x1b, r24	; 27
 120:	08 95       	ret
	else if(value<=CDS_100) PORTA = 0x01;
 122:	8e 3a       	cpi	r24, 0xAE	; 174
 124:	92 40       	sbci	r25, 0x02	; 2
 126:	18 f4       	brcc	.+6      	; 0x12e <show_adc_led+0x6e>
 128:	81 e0       	ldi	r24, 0x01	; 1
 12a:	8b bb       	out	0x1b, r24	; 27
 12c:	08 95       	ret
	else PORTA = 0x00;
 12e:	1b ba       	out	0x1b, r1	; 27
 130:	08 95       	ret

00000132 <main>:
void show_adc_led(unsigned short data);

int main(void)
{
	unsigned short value;
	DDRA = 0xFF;
 132:	8f ef       	ldi	r24, 0xFF	; 255
 134:	8a bb       	out	0x1a, r24	; 26
	DDRF = 0x00;
 136:	10 92 61 00 	sts	0x0061, r1	; 0x800061 <__TEXT_REGION_LENGTH__+0x7e0061>
	init_adc();
 13a:	b1 df       	rcall	.-158    	; 0x9e <init_adc>
	while (1)
	{
		value = read_adc();
 13c:	b5 df       	rcall	.-150    	; 0xa8 <read_adc>
		show_adc_led(value);
 13e:	c0 df       	rcall	.-128    	; 0xc0 <show_adc_led>
 140:	fd cf       	rjmp	.-6      	; 0x13c <main+0xa>

00000142 <_exit>:
 142:	f8 94       	cli

00000144 <__stop_program>:
 144:	ff cf       	rjmp	.-2      	; 0x144 <__stop_program>
